target datalayout = "e-m:e-p270:32:32-p271:32:32-p272:64:64-i64:64-i128:128-f80:128-n8:16:32:64-S128"
target triple = "x86_64-pc-linux-gnu"

%struct.sha256_state_st = type { [8 x i32], i32, i32, [64 x i8], i32, i32 }

; Function Attrs: nounwind uwtable
define internal void @tls1_sha256_final_raw(ptr noundef %0, ptr noundef %1) #0 {
  %3 = alloca ptr, align 8
  %4 = alloca ptr, align 8
  %5 = alloca ptr, align 8
  %6 = alloca i32, align 4
  store ptr %0, ptr %3, align 8, !tbaa !26
  store ptr %1, ptr %4, align 8, !tbaa !11
  call void @llvm.lifetime.start.p0(i64 8, ptr %5) #6
  %7 = load ptr, ptr %3, align 8, !tbaa !26
  store ptr %7, ptr %5, align 8, !tbaa !35
  call void @llvm.lifetime.start.p0(i64 4, ptr %6) #6
  store i32 0, ptr %6, align 4, !tbaa !13
  br label %8

8:                                                ; preds = %51, %2
  %9 = load i32, ptr %6, align 4, !tbaa !13
  %10 = icmp ult i32 %9, 8
  br i1 %10, label %11, label %54

11:                                               ; preds = %8
  %12 = load ptr, ptr %5, align 8, !tbaa !35
  %13 = getelementptr inbounds nuw %struct.sha256_state_st, ptr %12, i32 0, i32 0
  %14 = load i32, ptr %6, align 4, !tbaa !13
  %15 = zext i32 %14 to i64
  %16 = getelementptr inbounds nuw [8 x i32], ptr %13, i64 0, i64 %15
  %17 = load i32, ptr %16, align 4, !tbaa !13
  %18 = lshr i32 %17, 24
  %19 = trunc i32 %18 to i8
  %20 = load ptr, ptr %4, align 8, !tbaa !11
  %21 = getelementptr inbounds nuw i8, ptr %20, i32 1
  store ptr %21, ptr %4, align 8, !tbaa !11
  store i8 %19, ptr %20, align 1, !tbaa !15
  %22 = load ptr, ptr %5, align 8, !tbaa !35
  %23 = getelementptr inbounds nuw %struct.sha256_state_st, ptr %22, i32 0, i32 0
  %24 = load i32, ptr %6, align 4, !tbaa !13
  %25 = zext i32 %24 to i64
  %26 = getelementptr inbounds nuw [8 x i32], ptr %23, i64 0, i64 %25
  %27 = load i32, ptr %26, align 4, !tbaa !13
  %28 = lshr i32 %27, 16
  %29 = trunc i32 %28 to i8
  %30 = load ptr, ptr %4, align 8, !tbaa !11
  %31 = getelementptr inbounds nuw i8, ptr %30, i32 1
  store ptr %31, ptr %4, align 8, !tbaa !11
  store i8 %29, ptr %30, align 1, !tbaa !15
  %32 = load ptr, ptr %5, align 8, !tbaa !35
  %33 = getelementptr inbounds nuw %struct.sha256_state_st, ptr %32, i32 0, i32 0
  %34 = load i32, ptr %6, align 4, !tbaa !13
  %35 = zext i32 %34 to i64
  %36 = getelementptr inbounds nuw [8 x i32], ptr %33, i64 0, i64 %35
  %37 = load i32, ptr %36, align 4, !tbaa !13
  %38 = lshr i32 %37, 8
  %39 = trunc i32 %38 to i8
  %40 = load ptr, ptr %4, align 8, !tbaa !11
  %41 = getelementptr inbounds nuw i8, ptr %40, i32 1
  store ptr %41, ptr %4, align 8, !tbaa !11
  store i8 %39, ptr %40, align 1, !tbaa !15
  %42 = load ptr, ptr %5, align 8, !tbaa !35
  %43 = getelementptr inbounds nuw %struct.sha256_state_st, ptr %42, i32 0, i32 0
  %44 = load i32, ptr %6, align 4, !tbaa !13
  %45 = zext i32 %44 to i64
  %46 = getelementptr inbounds nuw [8 x i32], ptr %43, i64 0, i64 %45
  %47 = load i32, ptr %46, align 4, !tbaa !13
  %48 = trunc i32 %47 to i8
  %49 = load ptr, ptr %4, align 8, !tbaa !11
  %50 = getelementptr inbounds nuw i8, ptr %49, i32 1
  store ptr %50, ptr %4, align 8, !tbaa !11
  store i8 %48, ptr %49, align 1, !tbaa !15
  br label %51

51:                                               ; preds = %11
  %52 = load i32, ptr %6, align 4, !tbaa !13
  %53 = add i32 %52, 1
  store i32 %53, ptr %6, align 4, !tbaa !13
  br label %8, !llvm.loop !37

54:                                               ; preds = %8
  call void @llvm.lifetime.end.p0(i64 4, ptr %6) #6
  call void @llvm.lifetime.end.p0(i64 8, ptr %5) #6
  ret void
}