; Function Attrs: nofree norecurse nosync nounwind memory(argmem: readwrite) uwtable
define internal void @tls1_sha256_final_raw(ptr noundef readonly captures(none) %0, ptr noundef writeonly captures(none) %1) unnamed_addr #0 {
  br label %3

3:                                                ; preds = %2, %3
  %indvars.iv = phi i64 [ 0, %2 ], [ %indvars.iv.next, %3 ]
  %.01415 = phi ptr [ %1, %2 ], [ %19, %3 ]
  %4 = getelementptr inbounds nuw [8 x i32], ptr %0, i64 0, i64 %indvars.iv
  %5 = load i32, ptr %4, align 4, !tbaa !11
  %6 = lshr i32 %5, 24
  %7 = trunc nuw i32 %6 to i8
  %8 = getelementptr inbounds nuw i8, ptr %.01415, i64 1
  store i8 %7, ptr %.01415, align 1, !tbaa !6
  %9 = load i32, ptr %4, align 4, !tbaa !11
  %10 = lshr i32 %9, 16
  %11 = trunc i32 %10 to i8
  %12 = getelementptr inbounds nuw i8, ptr %.01415, i64 2
  store i8 %11, ptr %8, align 1, !tbaa !6
  %13 = load i32, ptr %4, align 4, !tbaa !11
  %14 = lshr i32 %13, 8
  %15 = trunc i32 %14 to i8
  %16 = getelementptr inbounds nuw i8, ptr %.01415, i64 3
  store i8 %15, ptr %12, align 1, !tbaa !6
  %17 = load i32, ptr %4, align 4, !tbaa !11
  %18 = trunc i32 %17 to i8
  %19 = getelementptr inbounds nuw i8, ptr %.01415, i64 4
  store i8 %18, ptr %16, align 1, !tbaa !6
  %indvars.iv.next = add nuw nsw i64 %indvars.iv, 1
  %exitcond.not = icmp eq i64 %indvars.iv.next, 8
  br i1 %exitcond.not, label %20, label %3, !llvm.loop !25

20:                                               ; preds = %3
  ret void
}